#include <math.h>
#include <stdio.h>
#include <stdlib.h>
#include <string.h>
#include <iostream>
using namespace std;

int main() 
{
	int n,i;
	double sum;
	sum=0;
	cin>>n;//???? 
	for(i=1;i<=n;i++)
	{
		if(i%7==0){sum=sum;}//??7??? 
		else if((i-7)%10==0){sum=sum;}//?????7?? 
		else if(i/10==7){sum=sum;}//?????7?? 
		else
		{
			sum=sum+i*i;//????????? 
		}
	}
	cout<<sum<<endl;
} 